target datalayout = "e-m:e-p270:32:32-p271:32:32-p272:64:64-i64:64-i128:128-f80:128-n8:16:32:64-S128"
target triple = "x86_64-pc-linux-gnu"

%"struct.Luau::BytecodeBuilder::StringRef" = type { ptr, i64 }
%"struct.Luau::BytecodeBuilder::TableShape" = type { [32 x i32], i32 }
%"struct.Luau::BytecodeBuilder::ConstantKey" = type { i32, i64, i64 }
%"class.Luau::BytecodeBuilder" = type { %"class.std::vector", i32, i32, i64, %"class.std::vector.0", %"class.std::vector.5", %"class.std::vector.10", %"class.std::vector.0", %"class.std::vector.15", %"class.std::vector.20", i8, [7 x i8], %"class.Luau::DenseHashMap", %"class.Luau::DenseHashMap.25", %"class.Luau::DenseHashMap.28", i32, %"class.std::vector.31", %"class.std::vector.36", %"class.std::vector.41", %"class.std::vector.46", %"class.std::vector.51", %"class.Luau::DenseHashMap.56", %"class.std::vector.59", %"class.std::vector.64", %"class.std::__cxx11::basic_string", ptr, %"class.std::__cxx11::basic_string", i32, %"class.std::vector.72", %"class.std::vector.77", %"class.std::__cxx11::basic_string", { i64, i64 } }
%"class.std::vector" = type { %"struct.std::_Vector_base" }
%"struct.std::_Vector_base" = type { %"struct.std::_Vector_base<Luau::BytecodeBuilder::Function, std::allocator<Luau::BytecodeBuilder::Function>>::_Vector_impl" }
%"struct.std::_Vector_base<Luau::BytecodeBuilder::Function, std::allocator<Luau::BytecodeBuilder::Function>>::_Vector_impl" = type { %"struct.std::_Vector_base<Luau::BytecodeBuilder::Function, std::allocator<Luau::BytecodeBuilder::Function>>::_Vector_impl_data" }
%"struct.std::_Vector_base<Luau::BytecodeBuilder::Function, std::allocator<Luau::BytecodeBuilder::Function>>::_Vector_impl_data" = type { ptr, ptr, ptr }
%"class.std::vector.5" = type { %"struct.std::_Vector_base.6" }
%"struct.std::_Vector_base.6" = type { %"struct.std::_Vector_base<int, std::allocator<int>>::_Vector_impl" }
%"struct.std::_Vector_base<int, std::allocator<int>>::_Vector_impl" = type { %"struct.std::_Vector_base<int, std::allocator<int>>::_Vector_impl_data" }
%"struct.std::_Vector_base<int, std::allocator<int>>::_Vector_impl_data" = type { ptr, ptr, ptr }
%"class.std::vector.10" = type { %"struct.std::_Vector_base.11" }
%"struct.std::_Vector_base.11" = type { %"struct.std::_Vector_base<Luau::BytecodeBuilder::Constant, std::allocator<Luau::BytecodeBuilder::Constant>>::_Vector_impl" }
%"struct.std::_Vector_base<Luau::BytecodeBuilder::Constant, std::allocator<Luau::BytecodeBuilder::Constant>>::_Vector_impl" = type { %"struct.std::_Vector_base<Luau::BytecodeBuilder::Constant, std::allocator<Luau::BytecodeBuilder::Constant>>::_Vector_impl_data" }
%"struct.std::_Vector_base<Luau::BytecodeBuilder::Constant, std::allocator<Luau::BytecodeBuilder::Constant>>::_Vector_impl_data" = type { ptr, ptr, ptr }
%"class.std::vector.0" = type { %"struct.std::_Vector_base.1" }
%"struct.std::_Vector_base.1" = type { %"struct.std::_Vector_base<unsigned int, std::allocator<unsigned int>>::_Vector_impl" }
%"struct.std::_Vector_base<unsigned int, std::allocator<unsigned int>>::_Vector_impl" = type { %"struct.std::_Vector_base<unsigned int, std::allocator<unsigned int>>::_Vector_impl_data" }
%"struct.std::_Vector_base<unsigned int, std::allocator<unsigned int>>::_Vector_impl_data" = type { ptr, ptr, ptr }
%"class.std::vector.15" = type { %"struct.std::_Vector_base.16" }
%"struct.std::_Vector_base.16" = type { %"struct.std::_Vector_base<Luau::BytecodeBuilder::Jump, std::allocator<Luau::BytecodeBuilder::Jump>>::_Vector_impl" }
%"struct.std::_Vector_base<Luau::BytecodeBuilder::Jump, std::allocator<Luau::BytecodeBuilder::Jump>>::_Vector_impl" = type { %"struct.std::_Vector_base<Luau::BytecodeBuilder::Jump, std::allocator<Luau::BytecodeBuilder::Jump>>::_Vector_impl_data" }
%"struct.std::_Vector_base<Luau::BytecodeBuilder::Jump, std::allocator<Luau::BytecodeBuilder::Jump>>::_Vector_impl_data" = type { ptr, ptr, ptr }
%"class.std::vector.20" = type { %"struct.std::_Vector_base.21" }
%"struct.std::_Vector_base.21" = type { %"struct.std::_Vector_base<Luau::BytecodeBuilder::TableShape, std::allocator<Luau::BytecodeBuilder::TableShape>>::_Vector_impl" }
%"struct.std::_Vector_base<Luau::BytecodeBuilder::TableShape, std::allocator<Luau::BytecodeBuilder::TableShape>>::_Vector_impl" = type { %"struct.std::_Vector_base<Luau::BytecodeBuilder::TableShape, std::allocator<Luau::BytecodeBuilder::TableShape>>::_Vector_impl_data" }
%"struct.std::_Vector_base<Luau::BytecodeBuilder::TableShape, std::allocator<Luau::BytecodeBuilder::TableShape>>::_Vector_impl_data" = type { ptr, ptr, ptr }
%"class.Luau::DenseHashMap" = type { %"class.Luau::detail::DenseHashTable" }
%"class.Luau::detail::DenseHashTable" = type <{ ptr, i64, i64, %"struct.Luau::BytecodeBuilder::ConstantKey", [8 x i8] }>
%"class.Luau::DenseHashMap.25" = type { %"class.Luau::detail::DenseHashTable.26" }
%"class.Luau::detail::DenseHashTable.26" = type <{ ptr, i64, i64, %"struct.Luau::BytecodeBuilder::TableShape", [4 x i8] }>
%"class.Luau::DenseHashMap.28" = type { %"class.Luau::detail::DenseHashTable.29" }
%"class.Luau::detail::DenseHashTable.29" = type <{ ptr, i64, i64, i32, [4 x i8] }>
%"class.std::vector.31" = type { %"struct.std::_Vector_base.32" }
%"struct.std::_Vector_base.32" = type { %"struct.std::_Vector_base<Luau::BytecodeBuilder::DebugLocal, std::allocator<Luau::BytecodeBuilder::DebugLocal>>::_Vector_impl" }
%"struct.std::_Vector_base<Luau::BytecodeBuilder::DebugLocal, std::allocator<Luau::BytecodeBuilder::DebugLocal>>::_Vector_impl" = type { %"struct.std::_Vector_base<Luau::BytecodeBuilder::DebugLocal, std::allocator<Luau::BytecodeBuilder::DebugLocal>>::_Vector_impl_data" }
%"struct.std::_Vector_base<Luau::BytecodeBuilder::DebugLocal, std::allocator<Luau::BytecodeBuilder::DebugLocal>>::_Vector_impl_data" = type { ptr, ptr, ptr }
%"class.std::vector.36" = type { %"struct.std::_Vector_base.37" }
%"struct.std::_Vector_base.37" = type { %"struct.std::_Vector_base<Luau::BytecodeBuilder::DebugUpval, std::allocator<Luau::BytecodeBuilder::DebugUpval>>::_Vector_impl" }
%"struct.std::_Vector_base<Luau::BytecodeBuilder::DebugUpval, std::allocator<Luau::BytecodeBuilder::DebugUpval>>::_Vector_impl" = type { %"struct.std::_Vector_base<Luau::BytecodeBuilder::DebugUpval, std::allocator<Luau::BytecodeBuilder::DebugUpval>>::_Vector_impl_data" }
%"struct.std::_Vector_base<Luau::BytecodeBuilder::DebugUpval, std::allocator<Luau::BytecodeBuilder::DebugUpval>>::_Vector_impl_data" = type { ptr, ptr, ptr }
%"class.std::vector.41" = type { %"struct.std::_Vector_base.42" }
%"struct.std::_Vector_base.42" = type { %"struct.std::_Vector_base<Luau::BytecodeBuilder::TypedLocal, std::allocator<Luau::BytecodeBuilder::TypedLocal>>::_Vector_impl" }
%"struct.std::_Vector_base<Luau::BytecodeBuilder::TypedLocal, std::allocator<Luau::BytecodeBuilder::TypedLocal>>::_Vector_impl" = type { %"struct.std::_Vector_base<Luau::BytecodeBuilder::TypedLocal, std::allocator<Luau::BytecodeBuilder::TypedLocal>>::_Vector_impl_data" }
%"struct.std::_Vector_base<Luau::BytecodeBuilder::TypedLocal, std::allocator<Luau::BytecodeBuilder::TypedLocal>>::_Vector_impl_data" = type { ptr, ptr, ptr }
%"class.std::vector.46" = type { %"struct.std::_Vector_base.47" }
%"struct.std::_Vector_base.47" = type { %"struct.std::_Vector_base<Luau::BytecodeBuilder::TypedUpval, std::allocator<Luau::BytecodeBuilder::TypedUpval>>::_Vector_impl" }
%"struct.std::_Vector_base<Luau::BytecodeBuilder::TypedUpval, std::allocator<Luau::BytecodeBuilder::TypedUpval>>::_Vector_impl" = type { %"struct.std::_Vector_base<Luau::BytecodeBuilder::TypedUpval, std::allocator<Luau::BytecodeBuilder::TypedUpval>>::_Vector_impl_data" }
%"struct.std::_Vector_base<Luau::BytecodeBuilder::TypedUpval, std::allocator<Luau::BytecodeBuilder::TypedUpval>>::_Vector_impl_data" = type { ptr, ptr, ptr }
%"class.std::vector.51" = type { %"struct.std::_Vector_base.52" }
%"struct.std::_Vector_base.52" = type { %"struct.std::_Vector_base<Luau::BytecodeBuilder::UserdataType, std::allocator<Luau::BytecodeBuilder::UserdataType>>::_Vector_impl" }
%"struct.std::_Vector_base<Luau::BytecodeBuilder::UserdataType, std::allocator<Luau::BytecodeBuilder::UserdataType>>::_Vector_impl" = type { %"struct.std::_Vector_base<Luau::BytecodeBuilder::UserdataType, std::allocator<Luau::BytecodeBuilder::UserdataType>>::_Vector_impl_data" }
%"struct.std::_Vector_base<Luau::BytecodeBuilder::UserdataType, std::allocator<Luau::BytecodeBuilder::UserdataType>>::_Vector_impl_data" = type { ptr, ptr, ptr }
%"class.Luau::DenseHashMap.56" = type { %"class.Luau::detail::DenseHashTable.57" }
%"class.Luau::detail::DenseHashTable.57" = type <{ ptr, i64, i64, %"struct.Luau::BytecodeBuilder::StringRef", [8 x i8] }>
%"class.std::vector.59" = type { %"struct.std::_Vector_base.60" }
%"struct.std::_Vector_base.60" = type { %"struct.std::_Vector_base<Luau::BytecodeBuilder::StringRef, std::allocator<Luau::BytecodeBuilder::StringRef>>::_Vector_impl" }
%"struct.std::_Vector_base<Luau::BytecodeBuilder::StringRef, std::allocator<Luau::BytecodeBuilder::StringRef>>::_Vector_impl" = type { %"struct.std::_Vector_base<Luau::BytecodeBuilder::StringRef, std::allocator<Luau::BytecodeBuilder::StringRef>>::_Vector_impl_data" }
%"struct.std::_Vector_base<Luau::BytecodeBuilder::StringRef, std::allocator<Luau::BytecodeBuilder::StringRef>>::_Vector_impl_data" = type { ptr, ptr, ptr }
%"class.std::vector.64" = type { %"struct.std::_Vector_base.65" }
%"struct.std::_Vector_base.65" = type { %"struct.std::_Vector_base<std::pair<unsigned int, unsigned int>, std::allocator<std::pair<unsigned int, unsigned int>>>::_Vector_impl" }
%"struct.std::_Vector_base<std::pair<unsigned int, unsigned int>, std::allocator<std::pair<unsigned int, unsigned int>>>::_Vector_impl" = type { %"struct.std::_Vector_base<std::pair<unsigned int, unsigned int>, std::allocator<std::pair<unsigned int, unsigned int>>>::_Vector_impl_data" }
%"struct.std::_Vector_base<std::pair<unsigned int, unsigned int>, std::allocator<std::pair<unsigned int, unsigned int>>>::_Vector_impl_data" = type { ptr, ptr, ptr }
%"class.std::vector.72" = type { %"struct.std::_Vector_base.73" }
%"struct.std::_Vector_base.73" = type { %"struct.std::_Vector_base<std::__cxx11::basic_string<char>, std::allocator<std::__cxx11::basic_string<char>>>::_Vector_impl" }
%"struct.std::_Vector_base<std::__cxx11::basic_string<char>, std::allocator<std::__cxx11::basic_string<char>>>::_Vector_impl" = type { %"struct.std::_Vector_base<std::__cxx11::basic_string<char>, std::allocator<std::__cxx11::basic_string<char>>>::_Vector_impl_data" }
%"struct.std::_Vector_base<std::__cxx11::basic_string<char>, std::allocator<std::__cxx11::basic_string<char>>>::_Vector_impl_data" = type { ptr, ptr, ptr }
%"class.std::vector.77" = type { %"struct.std::_Vector_base.78" }
%"struct.std::_Vector_base.78" = type { %"struct.std::_Vector_base<std::pair<int, std::__cxx11::basic_string<char>>, std::allocator<std::pair<int, std::__cxx11::basic_string<char>>>>::_Vector_impl" }
%"struct.std::_Vector_base<std::pair<int, std::__cxx11::basic_string<char>>, std::allocator<std::pair<int, std::__cxx11::basic_string<char>>>>::_Vector_impl" = type { %"struct.std::_Vector_base<std::pair<int, std::__cxx11::basic_string<char>>, std::allocator<std::pair<int, std::__cxx11::basic_string<char>>>>::_Vector_impl_data" }
%"struct.std::_Vector_base<std::pair<int, std::__cxx11::basic_string<char>>, std::allocator<std::pair<int, std::__cxx11::basic_string<char>>>>::_Vector_impl_data" = type { ptr, ptr, ptr }
%"class.std::__cxx11::basic_string" = type { %"struct.std::__cxx11::basic_string<char>::_Alloc_hider", i64, %union.anon }
%"struct.std::__cxx11::basic_string<char>::_Alloc_hider" = type { ptr }
%union.anon = type { i64, [8 x i8] }

; Function Attrs: mustprogress nounwind uwtable
define linkonce_odr dso_local noundef i64 @_ZNKSt6vectorIjSaIjEE4sizeEv(ptr noundef nonnull align 8 dereferenceable(24) %0) #0 comdat align 2 {
  %2 = alloca ptr, align 8
  store ptr %0, ptr %2, align 8, !tbaa !146
  %3 = load ptr, ptr %2, align 8
  %4 = getelementptr inbounds nuw %"struct.std::_Vector_base.1", ptr %3, i32 0, i32 0
  %5 = getelementptr inbounds nuw %"struct.std::_Vector_base<unsigned int, std::allocator<unsigned int>>::_Vector_impl_data", ptr %4, i32 0, i32 1
  %6 = load ptr, ptr %5, align 8, !tbaa !185
  %7 = getelementptr inbounds nuw %"struct.std::_Vector_base.1", ptr %3, i32 0, i32 0
  %8 = getelementptr inbounds nuw %"struct.std::_Vector_base<unsigned int, std::allocator<unsigned int>>::_Vector_impl_data", ptr %7, i32 0, i32 0
  %9 = load ptr, ptr %8, align 8, !tbaa !184
  %10 = ptrtoint ptr %6 to i64
  %11 = ptrtoint ptr %9 to i64
  %12 = sub i64 %10, %11
  %13 = sdiv exact i64 %12, 4
  ret i64 %13
}

; Function Attrs: mustprogress nounwind uwtable
define dso_local noundef i32 @_ZNK4Luau15BytecodeBuilder10getDebugPCEv(ptr noundef nonnull align 8 dereferenceable(840) %0) #0 align 2 {
  %2 = alloca ptr, align 8
  store ptr %0, ptr %2, align 8, !tbaa !35
  %3 = load ptr, ptr %2, align 8
  %4 = getelementptr inbounds nuw %"class.Luau::BytecodeBuilder", ptr %3, i32 0, i32 4
  %5 = call noundef i64 @_ZNKSt6vectorIjSaIjEE4sizeEv(ptr noundef nonnull align 8 dereferenceable(24) %4) #19
  %6 = trunc i64 %5 to i32
  ret i32 %6
}